
AMS_lab_3.elf:     file format elf32-avr

Sections:
Idx Name          Size      VMA       LMA       File off  Algn
  0 .data         00000052  00800200  0000054a  000005be  2**0
                  CONTENTS, ALLOC, LOAD, DATA
  1 .text         0000054a  00000000  00000000  00000074  2**1
                  CONTENTS, ALLOC, LOAD, READONLY, CODE
  2 .comment      00000030  00000000  00000000  00000610  2**0
                  CONTENTS, READONLY
  3 .note.gnu.avr.deviceinfo 00000040  00000000  00000000  00000640  2**2
                  CONTENTS, READONLY
  4 .debug_aranges 000000c8  00000000  00000000  00000680  2**0
                  CONTENTS, READONLY, DEBUGGING
  5 .debug_info   00001bd8  00000000  00000000  00000748  2**0
                  CONTENTS, READONLY, DEBUGGING
  6 .debug_abbrev 00000e91  00000000  00000000  00002320  2**0
                  CONTENTS, READONLY, DEBUGGING
  7 .debug_line   0000094c  00000000  00000000  000031b1  2**0
                  CONTENTS, READONLY, DEBUGGING
  8 .debug_frame  000001bc  00000000  00000000  00003b00  2**2
                  CONTENTS, READONLY, DEBUGGING
  9 .debug_str    000006e6  00000000  00000000  00003cbc  2**0
                  CONTENTS, READONLY, DEBUGGING
 10 .debug_loc    000009bc  00000000  00000000  000043a2  2**0
                  CONTENTS, READONLY, DEBUGGING
 11 .debug_ranges 000000a8  00000000  00000000  00004d5e  2**0
                  CONTENTS, READONLY, DEBUGGING

Disassembly of section .text:

00000000 <__vectors>:
   0:	71 c0       	rjmp	.+226    	; 0xe4 <__ctors_end>
   2:	00 00       	nop
   4:	86 c0       	rjmp	.+268    	; 0x112 <__bad_interrupt>
   6:	00 00       	nop
   8:	84 c0       	rjmp	.+264    	; 0x112 <__bad_interrupt>
   a:	00 00       	nop
   c:	82 c0       	rjmp	.+260    	; 0x112 <__bad_interrupt>
   e:	00 00       	nop
  10:	80 c0       	rjmp	.+256    	; 0x112 <__bad_interrupt>
  12:	00 00       	nop
  14:	7e c0       	rjmp	.+252    	; 0x112 <__bad_interrupt>
  16:	00 00       	nop
  18:	7c c0       	rjmp	.+248    	; 0x112 <__bad_interrupt>
  1a:	00 00       	nop
  1c:	7a c0       	rjmp	.+244    	; 0x112 <__bad_interrupt>
  1e:	00 00       	nop
  20:	78 c0       	rjmp	.+240    	; 0x112 <__bad_interrupt>
  22:	00 00       	nop
  24:	76 c0       	rjmp	.+236    	; 0x112 <__bad_interrupt>
  26:	00 00       	nop
  28:	74 c0       	rjmp	.+232    	; 0x112 <__bad_interrupt>
  2a:	00 00       	nop
  2c:	72 c0       	rjmp	.+228    	; 0x112 <__bad_interrupt>
  2e:	00 00       	nop
  30:	70 c0       	rjmp	.+224    	; 0x112 <__bad_interrupt>
  32:	00 00       	nop
  34:	6e c0       	rjmp	.+220    	; 0x112 <__bad_interrupt>
  36:	00 00       	nop
  38:	6c c0       	rjmp	.+216    	; 0x112 <__bad_interrupt>
  3a:	00 00       	nop
  3c:	6a c0       	rjmp	.+212    	; 0x112 <__bad_interrupt>
  3e:	00 00       	nop
  40:	68 c0       	rjmp	.+208    	; 0x112 <__bad_interrupt>
  42:	00 00       	nop
  44:	66 c0       	rjmp	.+204    	; 0x112 <__bad_interrupt>
  46:	00 00       	nop
  48:	64 c0       	rjmp	.+200    	; 0x112 <__bad_interrupt>
  4a:	00 00       	nop
  4c:	62 c0       	rjmp	.+196    	; 0x112 <__bad_interrupt>
  4e:	00 00       	nop
  50:	60 c0       	rjmp	.+192    	; 0x112 <__bad_interrupt>
  52:	00 00       	nop
  54:	5e c0       	rjmp	.+188    	; 0x112 <__bad_interrupt>
  56:	00 00       	nop
  58:	5c c0       	rjmp	.+184    	; 0x112 <__bad_interrupt>
  5a:	00 00       	nop
  5c:	5a c0       	rjmp	.+180    	; 0x112 <__bad_interrupt>
  5e:	00 00       	nop
  60:	58 c0       	rjmp	.+176    	; 0x112 <__bad_interrupt>
  62:	00 00       	nop
  64:	56 c0       	rjmp	.+172    	; 0x112 <__bad_interrupt>
  66:	00 00       	nop
  68:	54 c0       	rjmp	.+168    	; 0x112 <__bad_interrupt>
  6a:	00 00       	nop
  6c:	52 c0       	rjmp	.+164    	; 0x112 <__bad_interrupt>
  6e:	00 00       	nop
  70:	50 c0       	rjmp	.+160    	; 0x112 <__bad_interrupt>
  72:	00 00       	nop
  74:	4e c0       	rjmp	.+156    	; 0x112 <__bad_interrupt>
  76:	00 00       	nop
  78:	4c c0       	rjmp	.+152    	; 0x112 <__bad_interrupt>
  7a:	00 00       	nop
  7c:	4a c0       	rjmp	.+148    	; 0x112 <__bad_interrupt>
  7e:	00 00       	nop
  80:	48 c0       	rjmp	.+144    	; 0x112 <__bad_interrupt>
  82:	00 00       	nop
  84:	46 c0       	rjmp	.+140    	; 0x112 <__bad_interrupt>
  86:	00 00       	nop
  88:	44 c0       	rjmp	.+136    	; 0x112 <__bad_interrupt>
  8a:	00 00       	nop
  8c:	42 c0       	rjmp	.+132    	; 0x112 <__bad_interrupt>
  8e:	00 00       	nop
  90:	40 c0       	rjmp	.+128    	; 0x112 <__bad_interrupt>
  92:	00 00       	nop
  94:	3e c0       	rjmp	.+124    	; 0x112 <__bad_interrupt>
  96:	00 00       	nop
  98:	3c c0       	rjmp	.+120    	; 0x112 <__bad_interrupt>
  9a:	00 00       	nop
  9c:	3a c0       	rjmp	.+116    	; 0x112 <__bad_interrupt>
  9e:	00 00       	nop
  a0:	38 c0       	rjmp	.+112    	; 0x112 <__bad_interrupt>
  a2:	00 00       	nop
  a4:	36 c0       	rjmp	.+108    	; 0x112 <__bad_interrupt>
  a6:	00 00       	nop
  a8:	34 c0       	rjmp	.+104    	; 0x112 <__bad_interrupt>
  aa:	00 00       	nop
  ac:	32 c0       	rjmp	.+100    	; 0x112 <__bad_interrupt>
  ae:	00 00       	nop
  b0:	30 c0       	rjmp	.+96     	; 0x112 <__bad_interrupt>
  b2:	00 00       	nop
  b4:	2e c0       	rjmp	.+92     	; 0x112 <__bad_interrupt>
  b6:	00 00       	nop
  b8:	2c c0       	rjmp	.+88     	; 0x112 <__bad_interrupt>
  ba:	00 00       	nop
  bc:	2a c0       	rjmp	.+84     	; 0x112 <__bad_interrupt>
  be:	00 00       	nop
  c0:	28 c0       	rjmp	.+80     	; 0x112 <__bad_interrupt>
  c2:	00 00       	nop
  c4:	26 c0       	rjmp	.+76     	; 0x112 <__bad_interrupt>
  c6:	00 00       	nop
  c8:	24 c0       	rjmp	.+72     	; 0x112 <__bad_interrupt>
  ca:	00 00       	nop
  cc:	22 c0       	rjmp	.+68     	; 0x112 <__bad_interrupt>
  ce:	00 00       	nop
  d0:	20 c0       	rjmp	.+64     	; 0x112 <__bad_interrupt>
  d2:	00 00       	nop
  d4:	1e c0       	rjmp	.+60     	; 0x112 <__bad_interrupt>
  d6:	00 00       	nop
  d8:	1c c0       	rjmp	.+56     	; 0x112 <__bad_interrupt>
  da:	00 00       	nop
  dc:	1a c0       	rjmp	.+52     	; 0x112 <__bad_interrupt>
  de:	00 00       	nop
  e0:	18 c0       	rjmp	.+48     	; 0x112 <__bad_interrupt>
	...

000000e4 <__ctors_end>:
  e4:	11 24       	eor	r1, r1
  e6:	1f be       	out	0x3f, r1	; 63
  e8:	cf ef       	ldi	r28, 0xFF	; 255
  ea:	d1 e2       	ldi	r29, 0x21	; 33
  ec:	de bf       	out	0x3e, r29	; 62
  ee:	cd bf       	out	0x3d, r28	; 61
  f0:	00 e0       	ldi	r16, 0x00	; 0
  f2:	0c bf       	out	0x3c, r16	; 60

000000f4 <__do_copy_data>:
  f4:	12 e0       	ldi	r17, 0x02	; 2
  f6:	a0 e0       	ldi	r26, 0x00	; 0
  f8:	b2 e0       	ldi	r27, 0x02	; 2
  fa:	ea e4       	ldi	r30, 0x4A	; 74
  fc:	f5 e0       	ldi	r31, 0x05	; 5
  fe:	00 e0       	ldi	r16, 0x00	; 0
 100:	0b bf       	out	0x3b, r16	; 59
 102:	02 c0       	rjmp	.+4      	; 0x108 <__do_copy_data+0x14>
 104:	07 90       	elpm	r0, Z+
 106:	0d 92       	st	X+, r0
 108:	a2 35       	cpi	r26, 0x52	; 82
 10a:	b1 07       	cpc	r27, r17
 10c:	d9 f7       	brne	.-10     	; 0x104 <__do_copy_data+0x10>
 10e:	04 d1       	rcall	.+520    	; 0x318 <main>
 110:	1a c2       	rjmp	.+1076   	; 0x546 <_exit>

00000112 <__bad_interrupt>:
 112:	76 cf       	rjmp	.-276    	; 0x0 <__vectors>

00000114 <pulse_E>:
}  

static void pulse_E()
{ 
  // Enable E
  PORTH |= 0b01000000; // bit 6 set. (According to Lab Exercise document page 3.)
 114:	e2 e0       	ldi	r30, 0x02	; 2
 116:	f1 e0       	ldi	r31, 0x01	; 1
 118:	80 81       	ld	r24, Z
 11a:	80 64       	ori	r24, 0x40	; 64
 11c:	80 83       	st	Z, r24
	...
  // 5x nop, (Waiting 312,5 ns).
  _NOP();
  _NOP();
  _NOP();
  _NOP();
  _NOP();
 126:	00 00       	nop
    
  // disable E
  PORTH &= 0b10111111; // bit 6 cleared
 128:	80 81       	ld	r24, Z
 12a:	8f 7b       	andi	r24, 0xBF	; 191
 12c:	80 83       	st	Z, r24
  
  // Enable cycle time. min 500 ns. NOP delay is 125 ns. Return and call also takes time.
  _NOP();
 12e:	00 00       	nop
  _NOP();
 130:	00 00       	nop
 132:	08 95       	ret

00000134 <set4DataPins>:
}

// Sets the display data pins according to the 4 lower bits of data
static void set4DataPins(unsigned char data)
{
  PORTH = (PORTH & 0b11100111) | ((data<<1) & 0b00011000);
 134:	e2 e0       	ldi	r30, 0x02	; 2
 136:	f1 e0       	ldi	r31, 0x01	; 1
 138:	20 81       	ld	r18, Z
 13a:	90 e0       	ldi	r25, 0x00	; 0
 13c:	ac 01       	movw	r20, r24
 13e:	44 0f       	add	r20, r20
 140:	55 1f       	adc	r21, r21
 142:	48 71       	andi	r20, 0x18	; 24
 144:	27 7e       	andi	r18, 0xE7	; 231
 146:	24 2b       	or	r18, r20
 148:	20 83       	st	Z, r18
  PORTE = (PORTE & 0b11110111) | ((data<<2) & 0b00001000);
 14a:	2e b1       	in	r18, 0x0e	; 14
 14c:	ac 01       	movw	r20, r24
 14e:	44 0f       	add	r20, r20
 150:	55 1f       	adc	r21, r21
 152:	44 0f       	add	r20, r20
 154:	55 1f       	adc	r21, r21
 156:	48 70       	andi	r20, 0x08	; 8
 158:	27 7f       	andi	r18, 0xF7	; 247
 15a:	24 2b       	or	r18, r20
 15c:	2e b9       	out	0x0e, r18	; 14
  PORTG = (PORTG & 0b11011111) | ((data<<5) & 0b00100000);  
 15e:	24 b3       	in	r18, 0x14	; 20
 160:	88 0f       	add	r24, r24
 162:	99 1f       	adc	r25, r25
 164:	82 95       	swap	r24
 166:	92 95       	swap	r25
 168:	90 7f       	andi	r25, 0xF0	; 240
 16a:	98 27       	eor	r25, r24
 16c:	80 7f       	andi	r24, 0xF0	; 240
 16e:	98 27       	eor	r25, r24
 170:	80 72       	andi	r24, 0x20	; 32
 172:	92 2f       	mov	r25, r18
 174:	9f 7d       	andi	r25, 0xDF	; 223
 176:	89 2b       	or	r24, r25
 178:	84 bb       	out	0x14, r24	; 20
 17a:	08 95       	ret

0000017c <sendData>:
  // make delay 2 busy  wait
  waitBusy();
}

static void sendData(unsigned char data)
{      
 17c:	cf 93       	push	r28
 17e:	c8 2f       	mov	r28, r24
    // set rs high.
	_NOP();
 180:	00 00       	nop
    PORTH |= 0b00100000;
 182:	e2 e0       	ldi	r30, 0x02	; 2
 184:	f1 e0       	ldi	r31, 0x01	; 1
 186:	80 81       	ld	r24, Z
 188:	80 62       	ori	r24, 0x20	; 32
 18a:	80 83       	st	Z, r24
    
    // wait nop (t_as)
    _NOP();
 18c:	00 00       	nop
    
    // set databit (first 7, 6, 5, 4)
    set4DataPins((data>>4));
 18e:	8c 2f       	mov	r24, r28
 190:	82 95       	swap	r24
 192:	8f 70       	andi	r24, 0x0F	; 15
 194:	cf df       	rcall	.-98     	; 0x134 <set4DataPins>
    
    // pulse
    pulse_E();
 196:	be df       	rcall	.-132    	; 0x114 <pulse_E>
    
    // set databit (3, 2, 1, 0)
    set4DataPins(data);
 198:	8c 2f       	mov	r24, r28
 19a:	cc df       	rcall	.-104    	; 0x134 <set4DataPins>
    
    // pulse
    pulse_E();
 19c:	bb df       	rcall	.-138    	; 0x114 <pulse_E>
 19e:	00 00       	nop
    
    // make delay nop (min 40 micro sec)
    _NOP();
 1a0:	cf 91       	pop	r28
	// call and return takes time.
}
 1a2:	08 95       	ret

000001a4 <sendInstruction>:
 1a4:	cf 93       	push	r28
  PORTE = (PORTE & 0b11110111) | ((data<<2) & 0b00001000);
  PORTG = (PORTG & 0b11011111) | ((data<<5) & 0b00100000);  
}

static void sendInstruction(unsigned char data)
{      
 1a6:	c8 2f       	mov	r28, r24
  // set rs low.
  _NOP();
 1a8:	00 00       	nop
  PORTH &= 0b11011111;
 1aa:	e2 e0       	ldi	r30, 0x02	; 2
 1ac:	f1 e0       	ldi	r31, 0x01	; 1
 1ae:	80 81       	ld	r24, Z
 1b0:	8f 7d       	andi	r24, 0xDF	; 223
 1b2:	80 83       	st	Z, r24
  
  // wait nop (t_as)
  _NOP();
 1b4:	00 00       	nop
  
  // set databit (first 7, 6, 5, 4)
  set4DataPins((data>>4));
 1b6:	8c 2f       	mov	r24, r28
 1b8:	82 95       	swap	r24
 1ba:	8f 70       	andi	r24, 0x0F	; 15
 1bc:	bb df       	rcall	.-138    	; 0x134 <set4DataPins>
  
  // pulse
  pulse_E();
 1be:	aa df       	rcall	.-172    	; 0x114 <pulse_E>
  
  // set databit (3, 2, 1, 0)
  set4DataPins(data);
 1c0:	8c 2f       	mov	r24, r28
 1c2:	b8 df       	rcall	.-144    	; 0x134 <set4DataPins>
  
  // pulse
  pulse_E();
 1c4:	a7 df       	rcall	.-178    	; 0x114 <pulse_E>
 1c6:	8f e3       	ldi	r24, 0x3F	; 63
	#else
		//round up by default
		__ticks_dc = (uint32_t)(ceil(fabs(__tmp)));
	#endif

	__builtin_avr_delay_cycles(__ticks_dc);
 1c8:	9f e1       	ldi	r25, 0x1F	; 31
 1ca:	01 97       	sbiw	r24, 0x01	; 1
 1cc:	f1 f7       	brne	.-4      	; 0x1ca <sendInstruction+0x26>
 1ce:	00 c0       	rjmp	.+0      	; 0x1d0 <sendInstruction+0x2c>
 1d0:	00 00       	nop
 1d2:	cf 91       	pop	r28
  
  // make delay 2 busy  wait
  waitBusy();
}
 1d4:	08 95       	ret

000001d6 <LCDInit>:
 1d6:	e1 e0       	ldi	r30, 0x01	; 1
// at the upper line, leftmost character (cursor invisible)
// Reference: Page 46 in the HD44780 data sheet
void LCDInit()
{
  // Initializing the used port
  DDRH |= 0b01111000;  // Outputs
 1d8:	f1 e0       	ldi	r31, 0x01	; 1
 1da:	80 81       	ld	r24, Z
 1dc:	88 67       	ori	r24, 0x78	; 120
 1de:	80 83       	st	Z, r24
  DDRE |= 0b00001000;
 1e0:	6b 9a       	sbi	0x0d, 3	; 13
  DDRG |= 0b00100000;
 1e2:	9d 9a       	sbi	0x13, 5	; 19
 1e4:	2f ef       	ldi	r18, 0xFF	; 255
 1e6:	80 e7       	ldi	r24, 0x70	; 112
 1e8:	92 e0       	ldi	r25, 0x02	; 2
 1ea:	21 50       	subi	r18, 0x01	; 1
 1ec:	80 40       	sbci	r24, 0x00	; 0
 1ee:	90 40       	sbci	r25, 0x00	; 0
 1f0:	e1 f7       	brne	.-8      	; 0x1ea <LCDInit+0x14>
 1f2:	00 c0       	rjmp	.+0      	; 0x1f4 <LCDInit+0x1e>
 1f4:	00 00       	nop
  
  // Wait 50 ms (min. 15 ms demanded according to the data sheet)
  _delay_ms(50);
  // Function set (still 8 bit interface)
  PORTG |= 0b00100000;
 1f6:	a5 9a       	sbi	0x14, 5	; 20
  PORTE |= 0b00001000;
 1f8:	73 9a       	sbi	0x0e, 3	; 14
  pulse_E();
 1fa:	8c df       	rcall	.-232    	; 0x114 <pulse_E>
 1fc:	8f e3       	ldi	r24, 0x3F	; 63
 1fe:	9c e9       	ldi	r25, 0x9C	; 156
 200:	01 97       	sbiw	r24, 0x01	; 1
 202:	f1 f7       	brne	.-4      	; 0x200 <LCDInit+0x2a>
 204:	00 c0       	rjmp	.+0      	; 0x206 <LCDInit+0x30>
  
  // Wait 10 ms (min. 4,1 ms demanded according to the data sheet)
  _delay_ms(10);
  // Function set (still 8 bit interface)
  pulse_E();
 206:	00 00       	nop
 208:	85 df       	rcall	.-246    	; 0x114 <pulse_E>
 20a:	8f e3       	ldi	r24, 0x3F	; 63
 20c:	9c e9       	ldi	r25, 0x9C	; 156
 20e:	01 97       	sbiw	r24, 0x01	; 1
 210:	f1 f7       	brne	.-4      	; 0x20e <LCDInit+0x38>
 212:	00 c0       	rjmp	.+0      	; 0x214 <LCDInit+0x3e>

  // Wait 10 ms (min. 100 us demanded according to the data sheet)
  _delay_ms(10);
  // Function set (still 8 bit interface)
  pulse_E();
 214:	00 00       	nop
 216:	7e df       	rcall	.-260    	; 0x114 <pulse_E>
 218:	8f e3       	ldi	r24, 0x3F	; 63
 21a:	9c e9       	ldi	r25, 0x9C	; 156
 21c:	01 97       	sbiw	r24, 0x01	; 1
 21e:	f1 f7       	brne	.-4      	; 0x21c <LCDInit+0x46>
 220:	00 c0       	rjmp	.+0      	; 0x222 <LCDInit+0x4c>

  // Wait 10 ms (min. 100 us demanded according to the data sheet)
  _delay_ms(10);
  // Function set (now selecting 4 bit interface !)
  PORTG &= 0b11011111;
  pulse_E();
 222:	00 00       	nop

  // Function Set : 4 bit interface, 2 line display, 5x8 dots
  sendInstruction( 0b00101000 );
 224:	a5 98       	cbi	0x14, 5	; 20
 226:	76 df       	rcall	.-276    	; 0x114 <pulse_E>
  // Display, cursor and blinking OFF
  sendInstruction( 0b00001000 );
 228:	88 e2       	ldi	r24, 0x28	; 40
 22a:	bc df       	rcall	.-136    	; 0x1a4 <sendInstruction>
  // Clear display and set DDRAM adr = 0	
  sendInstruction( 0b00000001 );
 22c:	88 e0       	ldi	r24, 0x08	; 8
 22e:	ba df       	rcall	.-140    	; 0x1a4 <sendInstruction>
 230:	81 e0       	ldi	r24, 0x01	; 1
  // By display writes : Increment cursor / no shift
  sendInstruction( 0b00000110 );
 232:	b8 df       	rcall	.-144    	; 0x1a4 <sendInstruction>
 234:	86 e0       	ldi	r24, 0x06	; 6
 236:	b6 df       	rcall	.-148    	; 0x1a4 <sendInstruction>
  // Display ON, cursor and blinking OFF
  sendInstruction( 0b00001100 );
 238:	8c e0       	ldi	r24, 0x0C	; 12
 23a:	b4 cf       	rjmp	.-152    	; 0x1a4 <sendInstruction>
 23c:	08 95       	ret

0000023e <LCDClear>:
 23e:	81 e3       	ldi	r24, 0x31	; 49

// Blanks the display and sets "current display position" to
// the upper line, leftmost character
void LCDClear()
{
  sendInstruction('1');  
 240:	b1 cf       	rjmp	.-158    	; 0x1a4 <sendInstruction>
 242:	08 95       	ret

00000244 <LCDGotoXY>:
}

// Sets DDRAM address to character position x and line number y
void LCDGotoXY( unsigned char x, unsigned char y )
{
 244:	98 2f       	mov	r25, r24
  char data = 0b10000000;
  
  // Set DB7 1  
  if(y == '1')
 246:	61 33       	cpi	r22, 0x31	; 49
 248:	11 f4       	brne	.+4      	; 0x24e <LCDGotoXY+0xa>
  {
	  data |= 0b01000000;	// Adding 0x40 to DDRAM-address.
 24a:	80 ec       	ldi	r24, 0xC0	; 192
 24c:	01 c0       	rjmp	.+2      	; 0x250 <LCDGotoXY+0xc>
}

// Sets DDRAM address to character position x and line number y
void LCDGotoXY( unsigned char x, unsigned char y )
{
  char data = 0b10000000;
 24e:	80 e8       	ldi	r24, 0x80	; 128
  if(y == '1')
  {
	  data |= 0b01000000;	// Adding 0x40 to DDRAM-address.
  }
  
  if(x < 16)
 250:	90 31       	cpi	r25, 0x10	; 16
 252:	08 f4       	brcc	.+2      	; 0x256 <LCDGotoXY+0x12>
  {
	  data |= x;	  
 254:	89 2b       	or	r24, r25
  } // no need for else since data is initialized to zeros.
  
  sendInstruction(data);  
 256:	a6 cf       	rjmp	.-180    	; 0x1a4 <sendInstruction>
 258:	08 95       	ret

0000025a <LCDDispChar>:
}

// Display "ch" at "current display position"
void LCDDispChar(char ch)
{
  sendData(ch);
 25a:	90 cf       	rjmp	.-224    	; 0x17c <sendData>
 25c:	08 95       	ret

0000025e <LCDDispString>:
}

// Displays the string "str" starting at "current display position"
void LCDDispString(char* str)
{
 25e:	ef 92       	push	r14
 260:	ff 92       	push	r15
 262:	0f 93       	push	r16
 264:	1f 93       	push	r17
 266:	cf 93       	push	r28
 268:	df 93       	push	r29
 26a:	8c 01       	movw	r16, r24
 26c:	7c 01       	movw	r14, r24
	for(int i = 0; i< strlen(str); i++)
 26e:	c0 e0       	ldi	r28, 0x00	; 0
 270:	d0 e0       	ldi	r29, 0x00	; 0
 272:	05 c0       	rjmp	.+10     	; 0x27e <LCDDispString+0x20>
	{
		sendData(str[i]);
 274:	f7 01       	movw	r30, r14
 276:	81 91       	ld	r24, Z+
 278:	7f 01       	movw	r14, r30
 27a:	80 df       	rcall	.-256    	; 0x17c <sendData>
}

// Displays the string "str" starting at "current display position"
void LCDDispString(char* str)
{
	for(int i = 0; i< strlen(str); i++)
 27c:	21 96       	adiw	r28, 0x01	; 1
 27e:	f8 01       	movw	r30, r16
 280:	01 90       	ld	r0, Z+
 282:	00 20       	and	r0, r0
 284:	e9 f7       	brne	.-6      	; 0x280 <LCDDispString+0x22>
 286:	31 97       	sbiw	r30, 0x01	; 1
 288:	e0 1b       	sub	r30, r16
 28a:	f1 0b       	sbc	r31, r17
 28c:	ce 17       	cp	r28, r30
 28e:	df 07       	cpc	r29, r31
 290:	88 f3       	brcs	.-30     	; 0x274 <LCDDispString+0x16>
	{
		sendData(str[i]);
	}
}
 292:	df 91       	pop	r29
 294:	cf 91       	pop	r28
 296:	1f 91       	pop	r17
 298:	0f 91       	pop	r16
 29a:	ff 90       	pop	r15
 29c:	ef 90       	pop	r14
 29e:	08 95       	ret

000002a0 <LCDDispInteger>:

// Displays the value of integer "i" at "current display position"
void LCDDispInteger(int i)
{
 2a0:	cf 93       	push	r28
 2a2:	df 93       	push	r29
 2a4:	1f 92       	push	r1
 2a6:	cd b7       	in	r28, 0x3d	; 61
 2a8:	de b7       	in	r29, 0x3e	; 62
	unsigned char buffer;
	memcpy(&buffer, &i, sizeof(i));
 2aa:	89 83       	std	Y+1, r24	; 0x01
 2ac:	9a 83       	std	Y+2, r25	; 0x02
	//itoa(i, buffer, 10);
	sendData(buffer);  
 2ae:	66 df       	rcall	.-308    	; 0x17c <sendData>
}
 2b0:	0f 90       	pop	r0
 2b2:	df 91       	pop	r29
 2b4:	cf 91       	pop	r28
 2b6:	08 95       	ret

000002b8 <LCDLoadUDC>:
// Loads one of the 8 user definable characters (UDC) with a dot-pattern,
// pre-defined in an 8 byte array in FLASH memory
// The parameter *UDCTab is a pointer to the array containing the bit (dot) pattern
// The parameter UDCNo (0 to 7), defines which of the 8 CGRAM characters is to be loaded.
void LCDLoadUDC(unsigned char UDCNo, const unsigned char *UDCTab)
{
 2b8:	0f 93       	push	r16
 2ba:	1f 93       	push	r17
 2bc:	cf 93       	push	r28
 2be:	df 93       	push	r29
 2c0:	d6 2f       	mov	r29, r22
 2c2:	c7 2f       	mov	r28, r23
	// UDCNo must be a value between 0b0 and 0b1111 (0-7)
	sendData(UDCNo); // Set character Codes.
 2c4:	5b df       	rcall	.-330    	; 0x17c <sendData>
 2c6:	0d 2f       	mov	r16, r29
 2c8:	1c 2f       	mov	r17, r28
 2ca:	c0 e0       	ldi	r28, 0x00	; 0

	// There is a array containing the bit pattern. These arrays are defined in the test.
	for(int i = 0; i < 8; i++)
	{		
		sendInstruction(i); // send the linenumber
 2cc:	8c 2f       	mov	r24, r28
 2ce:	6a df       	rcall	.-300    	; 0x1a4 <sendInstruction>
		sendData(UDCTab[i]); // send the line for the bit-pattern.		
 2d0:	f8 01       	movw	r30, r16
 2d2:	81 91       	ld	r24, Z+
 2d4:	8f 01       	movw	r16, r30
 2d6:	52 df       	rcall	.-348    	; 0x17c <sendData>
 2d8:	cf 5f       	subi	r28, 0xFF	; 255
{
	// UDCNo must be a value between 0b0 and 0b1111 (0-7)
	sendData(UDCNo); // Set character Codes.

	// There is a array containing the bit pattern. These arrays are defined in the test.
	for(int i = 0; i < 8; i++)
 2da:	c8 30       	cpi	r28, 0x08	; 8
 2dc:	b9 f7       	brne	.-18     	; 0x2cc <LCDLoadUDC+0x14>
	{		
		sendInstruction(i); // send the linenumber
		sendData(UDCTab[i]); // send the line for the bit-pattern.		
	}
}
 2de:	df 91       	pop	r29
 2e0:	cf 91       	pop	r28
 2e2:	1f 91       	pop	r17
 2e4:	0f 91       	pop	r16
 2e6:	08 95       	ret

000002e8 <LCDOnOffControl>:
// "cursor" not 0 => visible cursor.
// "blink" not 0 => the character at the cursor position blinks.
void LCDOnOffControl(unsigned char cursor, unsigned char blink)
{
	unsigned char LCD_command = 0b00001100; // Display (bit 3) always on.
	if(cursor) // If cursor == 1
 2e8:	88 23       	and	r24, r24
 2ea:	11 f0       	breq	.+4      	; 0x2f0 <LCDOnOffControl+0x8>
	{
		LCD_command |= 1 << 1;
 2ec:	8e e0       	ldi	r24, 0x0E	; 14
 2ee:	01 c0       	rjmp	.+2      	; 0x2f2 <LCDOnOffControl+0xa>
// the cursor position has to blink.
// "cursor" not 0 => visible cursor.
// "blink" not 0 => the character at the cursor position blinks.
void LCDOnOffControl(unsigned char cursor, unsigned char blink)
{
	unsigned char LCD_command = 0b00001100; // Display (bit 3) always on.
 2f0:	8c e0       	ldi	r24, 0x0C	; 12
	if(cursor) // If cursor == 1
	{
		LCD_command |= 1 << 1;
	}
	if(blink)
 2f2:	61 11       	cpse	r22, r1
	{
		LCD_command |= 1 << 0; // "<< 0" is redundant, but is written for educational purposes.
 2f4:	81 60       	ori	r24, 0x01	; 1
	}	
	sendInstruction(LCD_command);  
 2f6:	56 cf       	rjmp	.-340    	; 0x1a4 <sendInstruction>
 2f8:	08 95       	ret

000002fa <LCDCursorLeft>:
}

// Moves the cursor to the left
void LCDCursorLeft()
{
	sendInstruction(0b00010000);
 2fa:	80 e1       	ldi	r24, 0x10	; 16
 2fc:	53 cf       	rjmp	.-346    	; 0x1a4 <sendInstruction>
 2fe:	08 95       	ret

00000300 <LCDCursorRight>:
}

// Moves the cursor to the right
void LCDCursorRight()
{
	sendInstruction(0b00010100);
 300:	84 e1       	ldi	r24, 0x14	; 20
 302:	50 cf       	rjmp	.-352    	; 0x1a4 <sendInstruction>
 304:	08 95       	ret

00000306 <LCDShiftLeft>:
}

// Moves the display text one position to the left
void LCDShiftLeft()
{
	sendInstruction(0b00011000);
 306:	88 e1       	ldi	r24, 0x18	; 24
 308:	4d cf       	rjmp	.-358    	; 0x1a4 <sendInstruction>
 30a:	08 95       	ret

0000030c <LCDShiftRight>:
}

// Moves the display text one position to the right
void LCDShiftRight()
{
  sendInstruction(0b00010100);
 30c:	84 e1       	ldi	r24, 0x14	; 20
 30e:	4a cf       	rjmp	.-364    	; 0x1a4 <sendInstruction>
 310:	08 95       	ret

00000312 <setBacklight>:
}

// Sets the backlight intensity to "percent" (0-100)
void setBacklight(unsigned char percent)
{
 312:	08 95       	ret

00000314 <readKeys>:
// Returns 0, if no key pressed
unsigned char readKeys()
{
	// To be implemented
	return 0;
 314:	80 e0       	ldi	r24, 0x00	; 0
 316:	08 95       	ret

00000318 <main>:
0b0010010,
0b0001101,
0b0000000};

int main()
{
 318:	cf 93       	push	r28
 31a:	df 93       	push	r29
 31c:	cd b7       	in	r28, 0x3d	; 61
 31e:	de b7       	in	r29, 0x3e	; 62
 320:	2f 97       	sbiw	r28, 0x0f	; 15
 322:	0f b6       	in	r0, 0x3f	; 63
 324:	f8 94       	cli
 326:	de bf       	out	0x3e, r29	; 62
 328:	0f be       	out	0x3f, r0	; 63
 32a:	cd bf       	out	0x3d, r28	; 61
char SRAMstring[] = "String in SRAM";
 32c:	8f e0       	ldi	r24, 0x0F	; 15
 32e:	e2 e1       	ldi	r30, 0x12	; 18
 330:	f2 e0       	ldi	r31, 0x02	; 2
 332:	de 01       	movw	r26, r28
 334:	11 96       	adiw	r26, 0x01	; 1
 336:	01 90       	ld	r0, Z+
 338:	0d 92       	st	X+, r0
 33a:	8a 95       	dec	r24
 33c:	e1 f7       	brne	.-8      	; 0x336 <main+0x1e>
int i;
  // Initialize the display
  LCDInit();
 33e:	4b df       	rcall	.-362    	; 0x1d6 <LCDInit>

  // Loading UDC (CGRAM) with the dot patterns for Æ,Ø,Å,æ,ø,å
  LCDLoadUDC(0,capital_ae);
 340:	69 e4       	ldi	r22, 0x49	; 73
 342:	72 e0       	ldi	r23, 0x02	; 2
 344:	80 e0       	ldi	r24, 0x00	; 0
 346:	b8 df       	rcall	.-144    	; 0x2b8 <LCDLoadUDC>
  LCDLoadUDC(1,capital_oe);
 348:	61 e4       	ldi	r22, 0x41	; 65
 34a:	72 e0       	ldi	r23, 0x02	; 2
 34c:	81 e0       	ldi	r24, 0x01	; 1
 34e:	b4 df       	rcall	.-152    	; 0x2b8 <LCDLoadUDC>
  LCDLoadUDC(2,capital_aa);
 350:	69 e3       	ldi	r22, 0x39	; 57
 352:	72 e0       	ldi	r23, 0x02	; 2
 354:	82 e0       	ldi	r24, 0x02	; 2
 356:	b0 df       	rcall	.-160    	; 0x2b8 <LCDLoadUDC>
  LCDLoadUDC(3,minor_ae);
 358:	61 e3       	ldi	r22, 0x31	; 49
 35a:	72 e0       	ldi	r23, 0x02	; 2
 35c:	83 e0       	ldi	r24, 0x03	; 3
 35e:	ac df       	rcall	.-168    	; 0x2b8 <LCDLoadUDC>
  LCDLoadUDC(4,minor_oe);
 360:	69 e2       	ldi	r22, 0x29	; 41
 362:	72 e0       	ldi	r23, 0x02	; 2
 364:	84 e0       	ldi	r24, 0x04	; 4
  LCDLoadUDC(5,minor_aa);
 366:	a8 df       	rcall	.-176    	; 0x2b8 <LCDLoadUDC>
 368:	61 e2       	ldi	r22, 0x21	; 33
 36a:	72 e0       	ldi	r23, 0x02	; 2
 36c:	85 e0       	ldi	r24, 0x05	; 5

  while (1)
  {
    // Display clear
    LCDClear();
 36e:	a4 df       	rcall	.-184    	; 0x2b8 <LCDLoadUDC>
 370:	66 df       	rcall	.-308    	; 0x23e <LCDClear>
    // Goto line 1, 3.character
    LCDGotoXY(2,0);
 372:	60 e0       	ldi	r22, 0x00	; 0
 374:	82 e0       	ldi	r24, 0x02	; 2
 376:	66 df       	rcall	.-308    	; 0x244 <LCDGotoXY>
 378:	80 e0       	ldi	r24, 0x00	; 0
    // Testing LCD_DispString()
    LCDDispString("X=2, Y=0");
 37a:	92 e0       	ldi	r25, 0x02	; 2
 37c:	70 df       	rcall	.-288    	; 0x25e <LCDDispString>
 37e:	2f ef       	ldi	r18, 0xFF	; 255
 380:	87 ea       	ldi	r24, 0xA7	; 167
 382:	91 e6       	ldi	r25, 0x61	; 97
 384:	21 50       	subi	r18, 0x01	; 1
 386:	80 40       	sbci	r24, 0x00	; 0
 388:	90 40       	sbci	r25, 0x00	; 0
 38a:	e1 f7       	brne	.-8      	; 0x384 <main+0x6c>
 38c:	00 c0       	rjmp	.+0      	; 0x38e <main+0x76>
    _delay_ms(2000);

    // Display clear
    LCDClear();
 38e:	00 00       	nop
 390:	56 df       	rcall	.-340    	; 0x23e <LCDClear>
    // Goto line 2, 4.character
    LCDGotoXY(3,1);
 392:	61 e0       	ldi	r22, 0x01	; 1
 394:	83 e0       	ldi	r24, 0x03	; 3
 396:	56 df       	rcall	.-340    	; 0x244 <LCDGotoXY>
 398:	89 e0       	ldi	r24, 0x09	; 9
    LCDDispString("X=3, Y=1");
 39a:	92 e0       	ldi	r25, 0x02	; 2
 39c:	60 df       	rcall	.-320    	; 0x25e <LCDDispString>
 39e:	2f ef       	ldi	r18, 0xFF	; 255
 3a0:	87 ea       	ldi	r24, 0xA7	; 167
 3a2:	91 e6       	ldi	r25, 0x61	; 97
 3a4:	21 50       	subi	r18, 0x01	; 1
 3a6:	80 40       	sbci	r24, 0x00	; 0
 3a8:	90 40       	sbci	r25, 0x00	; 0
    _delay_ms(2000);

    // Display clear
    LCDClear();
 3aa:	e1 f7       	brne	.-8      	; 0x3a4 <main+0x8c>
    // Testing LCDDispChar() and the UDC characters
    LCDDispChar('A');
 3ac:	00 c0       	rjmp	.+0      	; 0x3ae <main+0x96>
 3ae:	00 00       	nop
    LCDDispChar('B');
 3b0:	46 df       	rcall	.-372    	; 0x23e <LCDClear>
 3b2:	81 e4       	ldi	r24, 0x41	; 65
    LCDDispChar('C');
 3b4:	52 df       	rcall	.-348    	; 0x25a <LCDDispChar>
 3b6:	82 e4       	ldi	r24, 0x42	; 66
	LCDDispChar(' ');
 3b8:	50 df       	rcall	.-352    	; 0x25a <LCDDispChar>
 3ba:	83 e4       	ldi	r24, 0x43	; 67
    LCDDispChar(0);
 3bc:	4e df       	rcall	.-356    	; 0x25a <LCDDispChar>
 3be:	80 e2       	ldi	r24, 0x20	; 32
 3c0:	4c df       	rcall	.-360    	; 0x25a <LCDDispChar>
    LCDDispChar(1);
 3c2:	80 e0       	ldi	r24, 0x00	; 0
 3c4:	4a df       	rcall	.-364    	; 0x25a <LCDDispChar>
 3c6:	81 e0       	ldi	r24, 0x01	; 1
    LCDDispChar(2);
 3c8:	48 df       	rcall	.-368    	; 0x25a <LCDDispChar>
 3ca:	82 e0       	ldi	r24, 0x02	; 2
 3cc:	46 df       	rcall	.-372    	; 0x25a <LCDDispChar>
    LCDDispChar(3);
 3ce:	83 e0       	ldi	r24, 0x03	; 3
 3d0:	44 df       	rcall	.-376    	; 0x25a <LCDDispChar>
    LCDDispChar(4);
 3d2:	84 e0       	ldi	r24, 0x04	; 4
 3d4:	42 df       	rcall	.-380    	; 0x25a <LCDDispChar>
 3d6:	85 e0       	ldi	r24, 0x05	; 5
    LCDDispChar(5);
 3d8:	40 df       	rcall	.-384    	; 0x25a <LCDDispChar>
 3da:	61 e0       	ldi	r22, 0x01	; 1
 3dc:	80 e0       	ldi	r24, 0x00	; 0

    // Goto line 2 start
    LCDGotoXY(0,1);
 3de:	32 df       	rcall	.-412    	; 0x244 <LCDGotoXY>
 3e0:	ce 01       	movw	r24, r28
 3e2:	01 96       	adiw	r24, 0x01	; 1
 3e4:	3c df       	rcall	.-392    	; 0x25e <LCDDispString>
    // Testing LCDDispString()
    LCDDispString(SRAMstring);
 3e6:	2f ef       	ldi	r18, 0xFF	; 255
 3e8:	87 ea       	ldi	r24, 0xA7	; 167
 3ea:	91 e6       	ldi	r25, 0x61	; 97
 3ec:	21 50       	subi	r18, 0x01	; 1
 3ee:	80 40       	sbci	r24, 0x00	; 0
 3f0:	90 40       	sbci	r25, 0x00	; 0
 3f2:	e1 f7       	brne	.-8      	; 0x3ec <main+0xd4>
 3f4:	00 c0       	rjmp	.+0      	; 0x3f6 <main+0xde>
 3f6:	00 00       	nop
 3f8:	60 e0       	ldi	r22, 0x00	; 0
 3fa:	81 e0       	ldi	r24, 0x01	; 1
    _delay_ms(2000);

    // Visible cursor
    LCDOnOffControl(1,0);
 3fc:	75 df       	rcall	.-278    	; 0x2e8 <LCDOnOffControl>
 3fe:	2f ef       	ldi	r18, 0xFF	; 255
 400:	83 ed       	ldi	r24, 0xD3	; 211
 402:	90 e3       	ldi	r25, 0x30	; 48
 404:	21 50       	subi	r18, 0x01	; 1
 406:	80 40       	sbci	r24, 0x00	; 0
 408:	90 40       	sbci	r25, 0x00	; 0
 40a:	e1 f7       	brne	.-8      	; 0x404 <__LOCK_REGION_LENGTH__+0x4>
 40c:	00 c0       	rjmp	.+0      	; 0x40e <__LOCK_REGION_LENGTH__+0xe>
 40e:	00 00       	nop
 410:	61 e0       	ldi	r22, 0x01	; 1
 412:	83 e0       	ldi	r24, 0x03	; 3
    _delay_ms(1000);
    // Goto line 2, 4.character
    LCDGotoXY(3,1);
 414:	17 df       	rcall	.-466    	; 0x244 <LCDGotoXY>
 416:	61 e0       	ldi	r22, 0x01	; 1
    // Blinking characters
    LCDOnOffControl(0,1);
 418:	80 e0       	ldi	r24, 0x00	; 0
 41a:	66 df       	rcall	.-308    	; 0x2e8 <LCDOnOffControl>
 41c:	2f ef       	ldi	r18, 0xFF	; 255
 41e:	87 ea       	ldi	r24, 0xA7	; 167
 420:	91 e6       	ldi	r25, 0x61	; 97
 422:	21 50       	subi	r18, 0x01	; 1
 424:	80 40       	sbci	r24, 0x00	; 0
 426:	90 40       	sbci	r25, 0x00	; 0
 428:	e1 f7       	brne	.-8      	; 0x422 <__LOCK_REGION_LENGTH__+0x22>
 42a:	00 c0       	rjmp	.+0      	; 0x42c <__LOCK_REGION_LENGTH__+0x2c>
    _delay_ms(2000);
    // Blinking character with visible cursor
    LCDOnOffControl(1,1);
 42c:	00 00       	nop
 42e:	61 e0       	ldi	r22, 0x01	; 1
 430:	81 e0       	ldi	r24, 0x01	; 1
 432:	5a df       	rcall	.-332    	; 0x2e8 <LCDOnOffControl>
 434:	2f ef       	ldi	r18, 0xFF	; 255
 436:	87 ea       	ldi	r24, 0xA7	; 167
 438:	91 e6       	ldi	r25, 0x61	; 97
 43a:	21 50       	subi	r18, 0x01	; 1
 43c:	80 40       	sbci	r24, 0x00	; 0
 43e:	90 40       	sbci	r25, 0x00	; 0
 440:	e1 f7       	brne	.-8      	; 0x43a <__LOCK_REGION_LENGTH__+0x3a>
    _delay_ms(2000);

    // Move cursor 2 positions to the left
    LCDCursorLeft();
 442:	00 c0       	rjmp	.+0      	; 0x444 <__LOCK_REGION_LENGTH__+0x44>
 444:	00 00       	nop
    LCDCursorLeft();
 446:	59 df       	rcall	.-334    	; 0x2fa <LCDCursorLeft>
 448:	58 df       	rcall	.-336    	; 0x2fa <LCDCursorLeft>
 44a:	2f ef       	ldi	r18, 0xFF	; 255
 44c:	83 ed       	ldi	r24, 0xD3	; 211
 44e:	90 e3       	ldi	r25, 0x30	; 48
 450:	21 50       	subi	r18, 0x01	; 1
 452:	80 40       	sbci	r24, 0x00	; 0
 454:	90 40       	sbci	r25, 0x00	; 0
 456:	e1 f7       	brne	.-8      	; 0x450 <__LOCK_REGION_LENGTH__+0x50>
 458:	00 c0       	rjmp	.+0      	; 0x45a <__LOCK_REGION_LENGTH__+0x5a>
    _delay_ms(1000);

    // Move cursor 4 positions to the right
    LCDCursorRight();
 45a:	00 00       	nop
 45c:	51 df       	rcall	.-350    	; 0x300 <LCDCursorRight>
    LCDCursorRight();
 45e:	50 df       	rcall	.-352    	; 0x300 <LCDCursorRight>
 460:	4f df       	rcall	.-354    	; 0x300 <LCDCursorRight>
    LCDCursorRight();
 462:	4e df       	rcall	.-356    	; 0x300 <LCDCursorRight>
    LCDCursorRight();
 464:	2f ef       	ldi	r18, 0xFF	; 255
 466:	83 ed       	ldi	r24, 0xD3	; 211
 468:	90 e3       	ldi	r25, 0x30	; 48
 46a:	21 50       	subi	r18, 0x01	; 1
 46c:	80 40       	sbci	r24, 0x00	; 0
 46e:	90 40       	sbci	r25, 0x00	; 0
 470:	e1 f7       	brne	.-8      	; 0x46a <__LOCK_REGION_LENGTH__+0x6a>
 472:	00 c0       	rjmp	.+0      	; 0x474 <__LOCK_REGION_LENGTH__+0x74>
 474:	00 00       	nop
    _delay_ms(1000);

    // Shift the display text 2 positions to the right
    LCDShiftRight();
 476:	4a df       	rcall	.-364    	; 0x30c <LCDShiftRight>
 478:	49 df       	rcall	.-366    	; 0x30c <LCDShiftRight>
    LCDShiftRight();
 47a:	2f ef       	ldi	r18, 0xFF	; 255
 47c:	83 ed       	ldi	r24, 0xD3	; 211
 47e:	90 e3       	ldi	r25, 0x30	; 48
 480:	21 50       	subi	r18, 0x01	; 1
 482:	80 40       	sbci	r24, 0x00	; 0
 484:	90 40       	sbci	r25, 0x00	; 0
 486:	e1 f7       	brne	.-8      	; 0x480 <__LOCK_REGION_LENGTH__+0x80>
 488:	00 c0       	rjmp	.+0      	; 0x48a <__LOCK_REGION_LENGTH__+0x8a>
 48a:	00 00       	nop
 48c:	3c df       	rcall	.-392    	; 0x306 <LCDShiftLeft>
    _delay_ms(1000);
    // Shift the display text 1 position to the left
    LCDShiftLeft();
 48e:	2f ef       	ldi	r18, 0xFF	; 255
 490:	83 ed       	ldi	r24, 0xD3	; 211
 492:	90 e3       	ldi	r25, 0x30	; 48
 494:	21 50       	subi	r18, 0x01	; 1
 496:	80 40       	sbci	r24, 0x00	; 0
 498:	90 40       	sbci	r25, 0x00	; 0
 49a:	e1 f7       	brne	.-8      	; 0x494 <__LOCK_REGION_LENGTH__+0x94>
 49c:	00 c0       	rjmp	.+0      	; 0x49e <__LOCK_REGION_LENGTH__+0x9e>
 49e:	00 00       	nop
 4a0:	60 e0       	ldi	r22, 0x00	; 0
    _delay_ms(1000);

    // No blinking characters or cursor
    LCDOnOffControl(0,0);
 4a2:	80 e0       	ldi	r24, 0x00	; 0
 4a4:	21 df       	rcall	.-446    	; 0x2e8 <LCDOnOffControl>
 4a6:	cb de       	rcall	.-618    	; 0x23e <LCDClear>
 4a8:	00 ed       	ldi	r16, 0xD0	; 208
    // Display clear
    LCDClear();
 4aa:	1a e8       	ldi	r17, 0x8A	; 138
 4ac:	60 e0       	ldi	r22, 0x00	; 0
 4ae:	84 e0       	ldi	r24, 0x04	; 4
 4b0:	c9 de       	rcall	.-622    	; 0x244 <LCDGotoXY>
    // Testing LCDDispInteger()
    for ( i = 0; i < 10; i++ )
    {
      // Goto line 1, 5.character
      LCDGotoXY(4,0);
 4b2:	c8 01       	movw	r24, r16
 4b4:	f5 de       	rcall	.-534    	; 0x2a0 <LCDDispInteger>
 4b6:	61 e0       	ldi	r22, 0x01	; 1
      LCDDispInteger(i-30000);
 4b8:	84 e0       	ldi	r24, 0x04	; 4
 4ba:	c4 de       	rcall	.-632    	; 0x244 <LCDGotoXY>
 4bc:	c8 01       	movw	r24, r16
      // Goto line 2, 5.character
      LCDGotoXY(4,1);
 4be:	80 5a       	subi	r24, 0xA0	; 160
 4c0:	95 41       	sbci	r25, 0x15	; 21
 4c2:	ee de       	rcall	.-548    	; 0x2a0 <LCDDispInteger>
 4c4:	2f ef       	ldi	r18, 0xFF	; 255
      LCDDispInteger(i+30000);
 4c6:	89 e6       	ldi	r24, 0x69	; 105
 4c8:	98 e1       	ldi	r25, 0x18	; 24
 4ca:	21 50       	subi	r18, 0x01	; 1
 4cc:	80 40       	sbci	r24, 0x00	; 0
 4ce:	90 40       	sbci	r25, 0x00	; 0
 4d0:	e1 f7       	brne	.-8      	; 0x4ca <__LOCK_REGION_LENGTH__+0xca>
 4d2:	00 c0       	rjmp	.+0      	; 0x4d4 <__LOCK_REGION_LENGTH__+0xd4>
 4d4:	00 00       	nop
 4d6:	0f 5f       	subi	r16, 0xFF	; 255
 4d8:	1f 4f       	sbci	r17, 0xFF	; 255
 4da:	0a 3d       	cpi	r16, 0xDA	; 218
    // No blinking characters or cursor
    LCDOnOffControl(0,0);
    // Display clear
    LCDClear();
    // Testing LCDDispInteger()
    for ( i = 0; i < 10; i++ )
 4dc:	2a e8       	ldi	r18, 0x8A	; 138
 4de:	12 07       	cpc	r17, r18
 4e0:	29 f7       	brne	.-54     	; 0x4ac <__LOCK_REGION_LENGTH__+0xac>
 4e2:	10 e0       	ldi	r17, 0x00	; 0
 4e4:	81 2f       	mov	r24, r17
      _delay_ms(500);
    }
	// Testing setBacklight()
    for ( i = 0; i <= 100; i++ )
    {
      setBacklight(i);
 4e6:	15 df       	rcall	.-470    	; 0x312 <setBacklight>
 4e8:	8f ef       	ldi	r24, 0xFF	; 255
 4ea:	93 ef       	ldi	r25, 0xF3	; 243
 4ec:	21 e0       	ldi	r18, 0x01	; 1
 4ee:	81 50       	subi	r24, 0x01	; 1
 4f0:	90 40       	sbci	r25, 0x00	; 0
 4f2:	20 40       	sbci	r18, 0x00	; 0
 4f4:	e1 f7       	brne	.-8      	; 0x4ee <__LOCK_REGION_LENGTH__+0xee>
 4f6:	00 c0       	rjmp	.+0      	; 0x4f8 <__LOCK_REGION_LENGTH__+0xf8>
 4f8:	00 00       	nop
 4fa:	1f 5f       	subi	r17, 0xFF	; 255
 4fc:	15 36       	cpi	r17, 0x65	; 101
      LCDGotoXY(4,1);
      LCDDispInteger(i+30000);
      _delay_ms(500);
    }
	// Testing setBacklight()
    for ( i = 0; i <= 100; i++ )
 4fe:	91 f7       	brne	.-28     	; 0x4e4 <__LOCK_REGION_LENGTH__+0xe4>
 500:	14 e6       	ldi	r17, 0x64	; 100
 502:	81 2f       	mov	r24, r17
      setBacklight(i);
	  _delay_ms(40);
    }
    for ( i = 0; i <= 100; i++ )
    {
	    setBacklight(100-i);
 504:	06 df       	rcall	.-500    	; 0x312 <setBacklight>
 506:	8f ef       	ldi	r24, 0xFF	; 255
 508:	93 ef       	ldi	r25, 0xF3	; 243
 50a:	21 e0       	ldi	r18, 0x01	; 1
 50c:	81 50       	subi	r24, 0x01	; 1
 50e:	90 40       	sbci	r25, 0x00	; 0
 510:	20 40       	sbci	r18, 0x00	; 0
 512:	e1 f7       	brne	.-8      	; 0x50c <__LOCK_REGION_LENGTH__+0x10c>
 514:	00 c0       	rjmp	.+0      	; 0x516 <__LOCK_REGION_LENGTH__+0x116>
 516:	00 00       	nop
 518:	11 50       	subi	r17, 0x01	; 1
 51a:	98 f7       	brcc	.-26     	; 0x502 <__LOCK_REGION_LENGTH__+0x102>
 51c:	89 e1       	ldi	r24, 0x19	; 25
 51e:	f9 de       	rcall	.-526    	; 0x312 <setBacklight>
	    _delay_ms(40);
    }
    setBacklight(25);
 520:	8e de       	rcall	.-740    	; 0x23e <LCDClear>
 522:	0d c0       	rjmp	.+26     	; 0x53e <__LOCK_REGION_LENGTH__+0x13e>
 524:	8c de       	rcall	.-744    	; 0x23e <LCDClear>
	// Testing the 5 keys
    // Display clear
    LCDClear();
 526:	f6 de       	rcall	.-532    	; 0x314 <readKeys>
 528:	80 5d       	subi	r24, 0xD0	; 208
	while (readKeys() != 1)
 52a:	97 de       	rcall	.-722    	; 0x25a <LCDDispChar>
	{
      LCDClear();		
 52c:	8f ef       	ldi	r24, 0xFF	; 255
 52e:	91 ee       	ldi	r25, 0xE1	; 225
      LCDDispChar(readKeys()+'0');
 530:	24 e0       	ldi	r18, 0x04	; 4
 532:	81 50       	subi	r24, 0x01	; 1
 534:	90 40       	sbci	r25, 0x00	; 0
 536:	20 40       	sbci	r18, 0x00	; 0
 538:	e1 f7       	brne	.-8      	; 0x532 <__LOCK_REGION_LENGTH__+0x132>
 53a:	00 c0       	rjmp	.+0      	; 0x53c <__LOCK_REGION_LENGTH__+0x13c>
 53c:	00 00       	nop
 53e:	ea de       	rcall	.-556    	; 0x314 <readKeys>
 540:	81 30       	cpi	r24, 0x01	; 1
 542:	81 f7       	brne	.-32     	; 0x524 <__LOCK_REGION_LENGTH__+0x124>
 544:	15 cf       	rjmp	.-470    	; 0x370 <main+0x58>

00000546 <_exit>:
 546:	f8 94       	cli

00000548 <__stop_program>:
 548:	ff cf       	rjmp	.-2      	; 0x548 <__stop_program>
